target datalayout = "e-m:e-p270:32:32-p271:32:32-p272:64:64-i64:64-i128:128-f80:128-n8:16:32:64-S128"
target triple = "x86_64-pc-linux-gnu"

%struct.PgStat_EntryRef = type { ptr, ptr, i32, ptr, %struct.dlist_node }
%struct.dlist_node = type { ptr, ptr }
%struct.PgStat_StatDBEntry = type { i64, i64, i64, i64, i64, i64, i64, i64, i64, i64, i64, i64, i64, i64, i64, i64, i64, i64, i64, i64, i64, i64, i64, i64, i64, i64, i64, i64, i64, i64, i64, i64, i64 }

@pgstat_track_counts = external global i8, align 1
@MyDatabaseId = external global i32, align 4

; Function Attrs: nounwind uwtable
define dso_local ptr @pgstat_prep_database_pending(i32 noundef %0) #0 {
  %2 = alloca i32, align 4
  %3 = alloca ptr, align 8
  store i32 %0, ptr %2, align 4
  call void @llvm.lifetime.start.p0(i64 8, ptr %3) #4
  %4 = load i32, ptr %2, align 4
  %5 = call ptr @pgstat_prep_pending_entry(i32 noundef 1, i32 noundef %4, i64 noundef 0, ptr noundef null)
  store ptr %5, ptr %3, align 8
  %6 = load ptr, ptr %3, align 8
  %7 = getelementptr inbounds nuw %struct.PgStat_EntryRef, ptr %6, i32 0, i32 3
  %8 = load ptr, ptr %7, align 8
  call void @llvm.lifetime.end.p0(i64 8, ptr %3) #4
  ret ptr %8
}

; Function Attrs: nounwind uwtable
define dso_local void @pgstat_report_tempfile(i64 noundef %0) #0 {
  %2 = alloca i64, align 8
  %3 = alloca ptr, align 8
  %4 = alloca i32, align 4
  store i64 %0, ptr %2, align 8
  call void @llvm.lifetime.start.p0(i64 8, ptr %3) #4
  %5 = load i8, ptr @pgstat_track_counts, align 1, !range !4, !noundef !5
  %6 = trunc i8 %5 to i1
  br i1 %6, label %8, label %7

7:                                                ; preds = %1
  store i32 1, ptr %4, align 4
  br label %20

8:                                                ; preds = %1
  %9 = load i32, ptr @MyDatabaseId, align 4
  %10 = call ptr @pgstat_prep_database_pending(i32 noundef %9)
  store ptr %10, ptr %3, align 8
  %11 = load i64, ptr %2, align 8
  %12 = load ptr, ptr %3, align 8
  %13 = getelementptr inbounds nuw %struct.PgStat_StatDBEntry, ptr %12, i32 0, i32 17
  %14 = load i64, ptr %13, align 8
  %15 = add i64 %14, %11
  store i64 %15, ptr %13, align 8
  %16 = load ptr, ptr %3, align 8
  %17 = getelementptr inbounds nuw %struct.PgStat_StatDBEntry, ptr %16, i32 0, i32 16
  %18 = load i64, ptr %17, align 8
  %19 = add i64 %18, 1
  store i64 %19, ptr %17, align 8
  store i32 0, ptr %4, align 4
  br label %20

20:                                               ; preds = %8, %7
  call void @llvm.lifetime.end.p0(i64 8, ptr %3) #4
  %21 = load i32, ptr %4, align 4
  switch i32 %21, label %23 [
    i32 0, label %22
    i32 1, label %22
  ]

22:                                               ; preds = %20, %20
  ret void

23:                                               ; preds = %20
  unreachable
}