; Function Attrs: nounwind uwtable
define dso_local void @pgstat_report_tempfile(i64 noundef %0) local_unnamed_addr #0 {
  %2 = load i8, ptr @pgstat_track_counts, align 1, !range !4, !noundef !5
  %3 = trunc nuw i8 %2 to i1
  br i1 %3, label %4, label %15

4:                                                ; preds = %1
  %5 = load i32, ptr @MyDatabaseId, align 4
  %6 = tail call ptr @pgstat_prep_pending_entry(i32 noundef 1, i32 noundef %5, i64 noundef 0, ptr noundef null) #6
  %7 = getelementptr inbounds nuw i8, ptr %6, i64 24
  %8 = load ptr, ptr %7, align 8
  %9 = getelementptr inbounds nuw i8, ptr %8, i64 136
  %10 = load i64, ptr %9, align 8
  %11 = add i64 %10, %0
  store i64 %11, ptr %9, align 8
  %12 = getelementptr inbounds nuw i8, ptr %8, i64 128
  %13 = load i64, ptr %12, align 8
  %14 = add i64 %13, 1
  store i64 %14, ptr %12, align 8
  br label %15

15:                                               ; preds = %1, %4
  ret void
}